target datalayout = "e-m:e-p270:32:32-p271:32:32-p272:64:64-i64:64-i128:128-f80:128-n8:16:32:64-S128"
target triple = "x86_64-pc-linux-gnu"

@hf_infiniband_P_KeyTable_P_KeyTableBlock = internal global i32 0, align 4
@hf_infiniband_P_KeyTable_MembershipType = internal global i32 0, align 4
@hf_infiniband_P_KeyTable_P_KeyBase = internal global i32 0, align 4
@ett_pkeytable = internal global i32 0, align 4
@.str.1230 = private unnamed_addr constant [3 x i8] c"%s\00", align 1
@.str.1398 = private unnamed_addr constant [5 x i8] c"(%u)\00", align 1
@.str.1477 = private unnamed_addr constant [11 x i8] c"P_KeyTable\00", align 1

; Function Attrs: null_pointer_is_valid sspstrong uwtable
define internal void @parse_P_KeyTable(ptr noundef %0, ptr noundef %1, ptr noundef %2) #0 {
  %4 = alloca ptr, align 8
  %5 = alloca ptr, align 8
  %6 = alloca ptr, align 8
  %7 = alloca i32, align 4
  %8 = alloca i32, align 4
  %9 = alloca ptr, align 8
  %10 = alloca ptr, align 8
  %11 = alloca ptr, align 8
  %12 = alloca ptr, align 8
  %13 = alloca i32, align 4
  store ptr %0, ptr %4, align 8
  store ptr %1, ptr %5, align 8
  store ptr %2, ptr %6, align 8
  call void @llvm.lifetime.start.p0(i64 4, ptr %7) #18
  %14 = load ptr, ptr %6, align 8
  %15 = load i32, ptr %14, align 4
  store i32 %15, ptr %7, align 4
  call void @llvm.lifetime.start.p0(i64 4, ptr %8) #18
  call void @llvm.lifetime.start.p0(i64 8, ptr %9) #18
  call void @llvm.lifetime.start.p0(i64 8, ptr %10) #18
  call void @llvm.lifetime.start.p0(i64 8, ptr %11) #18
  call void @llvm.lifetime.start.p0(i64 8, ptr %12) #18
  %16 = load ptr, ptr %4, align 8
  %17 = icmp ne ptr %16, null
  br i1 %17, label %19, label %18

18:                                               ; preds = %3
  store i32 1, ptr %13, align 4
  br label %54

19:                                               ; preds = %3
  %20 = load ptr, ptr %4, align 8
  %21 = load i32, ptr @hf_infiniband_P_KeyTable_P_KeyTableBlock, align 4
  %22 = load ptr, ptr %5, align 8
  %23 = load i32, ptr %7, align 4
  %24 = call ptr @proto_tree_add_item(ptr noundef %20, i32 noundef %21, ptr noundef %22, i32 noundef %23, i32 noundef 64, i32 noundef 0)
  store ptr %24, ptr %9, align 8
  %25 = load ptr, ptr %9, align 8
  call void (ptr, ptr, ...) @proto_item_set_text(ptr noundef %25, ptr noundef @.str.1230, ptr noundef @.str.1477)
  %26 = load ptr, ptr %9, align 8
  %27 = load i32, ptr @ett_pkeytable, align 4
  %28 = call ptr @proto_item_add_subtree(ptr noundef %26, i32 noundef %27)
  store ptr %28, ptr %10, align 8
  store i32 0, ptr %8, align 4
  br label %29

29:                                               ; preds = %50, %19
  %30 = load i32, ptr %8, align 4
  %31 = icmp slt i32 %30, 32
  br i1 %31, label %32, label %53

32:                                               ; preds = %29
  %33 = load ptr, ptr %10, align 8
  %34 = load i32, ptr @hf_infiniband_P_KeyTable_MembershipType, align 4
  %35 = load ptr, ptr %5, align 8
  %36 = load i32, ptr %7, align 4
  %37 = call ptr @proto_tree_add_item(ptr noundef %33, i32 noundef %34, ptr noundef %35, i32 noundef %36, i32 noundef 1, i32 noundef 0)
  store ptr %37, ptr %11, align 8
  %38 = load ptr, ptr %10, align 8
  %39 = load i32, ptr @hf_infiniband_P_KeyTable_P_KeyBase, align 4
  %40 = load ptr, ptr %5, align 8
  %41 = load i32, ptr %7, align 4
  %42 = call ptr @proto_tree_add_item(ptr noundef %38, i32 noundef %39, ptr noundef %40, i32 noundef %41, i32 noundef 2, i32 noundef 0)
  store ptr %42, ptr %12, align 8
  %43 = load i32, ptr %7, align 4
  %44 = add i32 %43, 2
  store i32 %44, ptr %7, align 4
  %45 = load ptr, ptr %11, align 8
  %46 = load i32, ptr %8, align 4
  call void (ptr, ptr, ...) @proto_item_append_text(ptr noundef %45, ptr noundef @.str.1398, i32 noundef %46)
  %47 = load ptr, ptr %12, align 8
  %48 = load i32, ptr %8, align 4
  %49 = add i32 %48, 1
  call void (ptr, ptr, ...) @proto_item_append_text(ptr noundef %47, ptr noundef @.str.1398, i32 noundef %49)
  br label %50

50:                                               ; preds = %32
  %51 = load i32, ptr %8, align 4
  %52 = add i32 %51, 1
  store i32 %52, ptr %8, align 4
  br label %29, !llvm.loop !11

53:                                               ; preds = %29
  store i32 0, ptr %13, align 4
  br label %54

54:                                               ; preds = %53, %18
  call void @llvm.lifetime.end.p0(i64 8, ptr %12) #18
  call void @llvm.lifetime.end.p0(i64 8, ptr %11) #18
  call void @llvm.lifetime.end.p0(i64 8, ptr %10) #18
  call void @llvm.lifetime.end.p0(i64 8, ptr %9) #18
  call void @llvm.lifetime.end.p0(i64 4, ptr %8) #18
  call void @llvm.lifetime.end.p0(i64 4, ptr %7) #18
  %55 = load i32, ptr %13, align 4
  switch i32 %55, label %57 [
    i32 0, label %56
    i32 1, label %56
  ]

56:                                               ; preds = %54, %54
  ret void

57:                                               ; preds = %54
  unreachable
}